target datalayout = "e-m:e-p270:32:32-p271:32:32-p272:64:64-i64:64-i128:128-f80:128-n8:16:32:64-S128"
target triple = "x86_64-unknown-linux-gnu"

%"class.std::basic_string_view" = type { i64, ptr }
%"struct.google::protobuf::io::Printer::PrintOptions" = type { %"class.std::optional", i8, i8, i8, i8, i8, i8, i8 }
%"class.std::optional" = type { %"struct.std::_Optional_base" }
%"struct.std::_Optional_base" = type { %"struct.std::_Optional_payload" }
%"struct.std::_Optional_payload" = type { %"struct.std::_Optional_payload_base" }
%"struct.std::_Optional_payload_base" = type { %"union.std::_Optional_payload_base<google::protobuf::io::Printer::SourceLocation>::_Storage", i8 }
%"union.std::_Optional_payload_base<google::protobuf::io::Printer::SourceLocation>::_Storage" = type { %"struct.std::_Optional_payload_base<google::protobuf::io::Printer::SourceLocation>::_Empty_byte" }
%"struct.std::_Optional_payload_base<google::protobuf::io::Printer::SourceLocation>::_Empty_byte" = type { i8 }
%"class.absl::lts_20230802::FunctionRef" = type { %"union.absl::lts_20230802::functional_internal::VoidPtr", ptr }
%"union.absl::lts_20230802::functional_internal::VoidPtr" = type { ptr }
%"class.absl::lts_20230802::log_internal::Voidify" = type { i8 }
%"class.absl::lts_20230802::log_internal::LogMessageFatal" = type { %"class.absl::lts_20230802::log_internal::LogMessage" }
%"class.absl::lts_20230802::log_internal::LogMessage" = type { %"class.absl::lts_20230802::base_internal::ErrnoSaver", %"class.std::unique_ptr" }
%"class.absl::lts_20230802::base_internal::ErrnoSaver" = type { i32 }
%"class.std::unique_ptr" = type { %"struct.std::__uniq_ptr_data" }
%"struct.std::__uniq_ptr_data" = type { %"class.std::__uniq_ptr_impl" }
%"class.std::__uniq_ptr_impl" = type { %"class.std::tuple" }
%"class.std::tuple" = type { %"struct.std::_Tuple_impl" }
%"struct.std::_Tuple_impl" = type { %"struct.std::_Head_base.57" }
%"struct.std::_Head_base.57" = type { ptr }
%"class.std::__cxx11::basic_string" = type { %"struct.std::__cxx11::basic_string<char>::_Alloc_hider", i64, %union.anon }
%"struct.std::__cxx11::basic_string<char>::_Alloc_hider" = type { ptr }
%union.anon = type { i64, [8 x i8] }
%class.anon.58 = type { %"class.std::basic_string_view" }

@.str.4 = private unnamed_addr constant [129 x i8] c"generated/home/dtcxzyw/WorkSpace/Projects/compilers/llvm-opt-benchmark/bench/protobuf/protobuf/src/google/protobuf/io/printer.cc\00", align 1

; Function Attrs: mustprogress nounwind uwtable
define linkonce_odr hidden void @_ZNKO4absl12lts_2023080212log_internal7VoidifyaaINS1_10LogMessageEEEvRKT_(ptr noundef nonnull align 1 dereferenceable(1) %this, ptr noundef nonnull align 8 dereferenceable(16) %0) #5 comdat align 2 {
entry:
  %this.addr = alloca ptr, align 8
  %.addr = alloca ptr, align 8
  store ptr %this, ptr %this.addr, align 8
  store ptr %0, ptr %.addr, align 8
  ret void
}

; Function Attrs: mustprogress uwtable
define linkonce_odr hidden void @_ZNK4absl12lts_2023080211FunctionRefIFNSt7__cxx1112basic_stringIcSt11char_traitsIcESaIcEEEvEEclEv(ptr noalias sret(%"class.std::__cxx11::basic_string") align 8 %agg.result, ptr noundef nonnull align 8 dereferenceable(16) %this) #4 comdat align 2 {
entry:
  %result.ptr = alloca ptr, align 8
  %this.addr = alloca ptr, align 8
  %agg.tmp = alloca %"union.absl::lts_20230802::functional_internal::VoidPtr", align 8
  store ptr %agg.result, ptr %result.ptr, align 8
  store ptr %this, ptr %this.addr, align 8
  %this1 = load ptr, ptr %this.addr, align 8
  %invoker_ = getelementptr inbounds %"class.absl::lts_20230802::FunctionRef", ptr %this1, i32 0, i32 1
  %0 = load ptr, ptr %invoker_, align 8
  %ptr_ = getelementptr inbounds %"class.absl::lts_20230802::FunctionRef", ptr %this1, i32 0, i32 0
  call void @llvm.memcpy.p0.p0.i64(ptr align 8 %agg.tmp, ptr align 8 %ptr_, i64 8, i1 false)
  %coerce.dive = getelementptr inbounds %"union.absl::lts_20230802::functional_internal::VoidPtr", ptr %agg.tmp, i32 0, i32 0
  %1 = load ptr, ptr %coerce.dive, align 8
  call void %0(ptr sret(%"class.std::__cxx11::basic_string") align 8 %agg.result, ptr %1)
  ret void
}

; Function Attrs: mustprogress nounwind uwtable
define linkonce_odr hidden noundef nonnull align 8 dereferenceable(16) ptr @_ZN4absl12lts_2023080212log_internal10LogMessage14InternalStreamEv(ptr noundef nonnull align 8 dereferenceable(16) %this) #5 comdat align 2 {
entry:
  %this.addr = alloca ptr, align 8
  store ptr %this, ptr %this.addr, align 8
  %this1 = load ptr, ptr %this.addr, align 8
  ret ptr %this1
}

; Function Attrs: mustprogress nounwind uwtable
define internal void @"_ZN4absl12lts_2023080219functional_internal13AssertNonNullIZN6google8protobuf2io7Printer8ValidateEbNS6_12PrintOptionsESt17basic_string_viewIcSt11char_traitsIcEEE3$_0EEvRKT_"(ptr noundef nonnull align 8 dereferenceable(16) %0) #5 {
entry:
  %.addr = alloca ptr, align 8
  store ptr %0, ptr %.addr, align 8
  ret void
}

; Function Attrs: mustprogress uwtable
define noundef zeroext i1 @_ZN6google8protobuf2io7Printer8ValidateEbNS2_12PrintOptionsEN4absl12lts_2023080211FunctionRefIFNSt7__cxx1112basic_stringIcSt11char_traitsIcESaIcEEEvEEE(i1 noundef zeroext %cond, i64 %opts.coerce0, i8 %opts.coerce1, ptr %message.coerce0, ptr %message.coerce1) #4 align 2 personality ptr @__gxx_personality_v0 {
entry:
  %opts = alloca %"struct.google::protobuf::io::Printer::PrintOptions", align 1
  %coerce = alloca { i64, i8 }, align 1
  %message = alloca %"class.absl::lts_20230802::FunctionRef", align 8
  %cond.addr = alloca i8, align 1
  %ref.tmp = alloca %"class.absl::lts_20230802::log_internal::Voidify", align 1
  %ref.tmp3 = alloca %"class.absl::lts_20230802::log_internal::LogMessageFatal", align 8
  %exn.slot = alloca ptr, align 8
  %ehselector.slot = alloca i32, align 4
  %ref.tmp4 = alloca %"class.std::__cxx11::basic_string", align 8
  %0 = getelementptr inbounds { i64, i8 }, ptr %coerce, i32 0, i32 0
  store i64 %opts.coerce0, ptr %0, align 1
  %1 = getelementptr inbounds { i64, i8 }, ptr %coerce, i32 0, i32 1
  store i8 %opts.coerce1, ptr %1, align 1
  call void @llvm.memcpy.p0.p0.i64(ptr align 1 %opts, ptr align 1 %coerce, i64 9, i1 false)
  %2 = getelementptr inbounds { ptr, ptr }, ptr %message, i32 0, i32 0
  store ptr %message.coerce0, ptr %2, align 8
  %3 = getelementptr inbounds { ptr, ptr }, ptr %message, i32 0, i32 1
  store ptr %message.coerce1, ptr %3, align 8
  %frombool = zext i1 %cond to i8
  store i8 %frombool, ptr %cond.addr, align 1
  %4 = load i8, ptr %cond.addr, align 1
  %tobool = trunc i8 %4 to i1
  br i1 %tobool, label %if.end10, label %if.then

if.then:                                          ; preds = %entry
  %checks_are_debug_only = getelementptr inbounds %"struct.google::protobuf::io::Printer::PrintOptions", ptr %opts, i32 0, i32 1
  %5 = load i8, ptr %checks_are_debug_only, align 1
  %tobool1 = trunc i8 %5 to i1
  br i1 %tobool1, label %if.then2, label %if.else

if.then2:                                         ; preds = %if.then
  br label %if.end

if.else:                                          ; preds = %if.then
  call void @_ZN4absl12lts_2023080212log_internal15LogMessageFatalC1EPKci(ptr noundef nonnull align 8 dereferenceable(16) %ref.tmp3, ptr noundef @.str.4, i32 noundef 291) #21
  %call = invoke noundef nonnull align 8 dereferenceable(16) ptr @_ZN4absl12lts_2023080212log_internal10LogMessage14InternalStreamEv(ptr noundef nonnull align 8 dereferenceable(16) %ref.tmp3)
          to label %invoke.cont unwind label %lpad

invoke.cont:                                      ; preds = %if.else
  invoke void @_ZNK4absl12lts_2023080211FunctionRefIFNSt7__cxx1112basic_stringIcSt11char_traitsIcESaIcEEEvEEclEv(ptr sret(%"class.std::__cxx11::basic_string") align 8 %ref.tmp4, ptr noundef nonnull align 8 dereferenceable(16) %message)
          to label %invoke.cont5 unwind label %lpad

invoke.cont5:                                     ; preds = %invoke.cont
  %call8 = invoke noundef nonnull align 8 dereferenceable(16) ptr @_ZN4absl12lts_2023080212log_internal10LogMessagelsERKNSt7__cxx1112basic_stringIcSt11char_traitsIcESaIcEEE(ptr noundef nonnull align 8 dereferenceable(16) %call, ptr noundef nonnull align 8 dereferenceable(32) %ref.tmp4)
          to label %invoke.cont7 unwind label %lpad6

invoke.cont7:                                     ; preds = %invoke.cont5
  invoke void @_ZNKO4absl12lts_2023080212log_internal7VoidifyaaINS1_10LogMessageEEEvRKT_(ptr noundef nonnull align 1 dereferenceable(1) %ref.tmp, ptr noundef nonnull align 8 dereferenceable(16) %call8)
          to label %invoke.cont9 unwind label %lpad6

invoke.cont9:                                     ; preds = %invoke.cont7
  call void @_ZNSt7__cxx1112basic_stringIcSt11char_traitsIcESaIcEED1Ev(ptr noundef nonnull align 8 dereferenceable(32) %ref.tmp4) #3
  call void @_ZN4absl12lts_2023080212log_internal15LogMessageFatalD1Ev(ptr noundef nonnull align 8 dereferenceable(16) %ref.tmp3) #20
  unreachable

lpad:                                             ; preds = %invoke.cont, %if.else
  %6 = landingpad { ptr, i32 }
          cleanup
  %7 = extractvalue { ptr, i32 } %6, 0
  store ptr %7, ptr %exn.slot, align 8
  %8 = extractvalue { ptr, i32 } %6, 1
  store i32 %8, ptr %ehselector.slot, align 4
  br label %ehcleanup

lpad6:                                            ; preds = %invoke.cont7, %invoke.cont5
  %9 = landingpad { ptr, i32 }
          cleanup
  %10 = extractvalue { ptr, i32 } %9, 0
  store ptr %10, ptr %exn.slot, align 8
  %11 = extractvalue { ptr, i32 } %9, 1
  store i32 %11, ptr %ehselector.slot, align 4
  call void @_ZNSt7__cxx1112basic_stringIcSt11char_traitsIcESaIcEED1Ev(ptr noundef nonnull align 8 dereferenceable(32) %ref.tmp4) #3
  br label %ehcleanup

ehcleanup:                                        ; preds = %lpad6, %lpad
  call void @_ZN4absl12lts_2023080212log_internal15LogMessageFatalD1Ev(ptr noundef nonnull align 8 dereferenceable(16) %ref.tmp3) #20
  unreachable

12:                                               ; No predecessors!
  br label %eh.resume

if.end:                                           ; preds = %if.then2
  br label %if.end10

if.end10:                                         ; preds = %if.end, %entry
  %13 = load i8, ptr %cond.addr, align 1
  %tobool11 = trunc i8 %13 to i1
  ret i1 %tobool11

eh.resume:                                        ; preds = %12
  %exn = load ptr, ptr %exn.slot, align 8
  %sel = load i32, ptr %ehselector.slot, align 4
  %lpad.val = insertvalue { ptr, i32 } poison, ptr %exn, 0
  %lpad.val12 = insertvalue { ptr, i32 } %lpad.val, i32 %sel, 1
  resume { ptr, i32 } %lpad.val12
}

; Function Attrs: mustprogress uwtable
define internal void @"_ZN4absl12lts_2023080211FunctionRefIFNSt7__cxx1112basic_stringIcSt11char_traitsIcESaIcEEEvEEC2IZN6google8protobuf2io7Printer8ValidateEbNSE_12PrintOptionsESt17basic_string_viewIcS5_EE3$_0vEERKT_"(ptr noundef nonnull align 8 dereferenceable(16) %this, ptr noundef nonnull align 8 dereferenceable(16) %f) unnamed_addr #4 align 2 {
entry:
  %this.addr = alloca ptr, align 8
  %f.addr = alloca ptr, align 8
  store ptr %this, ptr %this.addr, align 8
  store ptr %f, ptr %f.addr, align 8
  %this1 = load ptr, ptr %this.addr, align 8
  %invoker_ = getelementptr inbounds %"class.absl::lts_20230802::FunctionRef", ptr %this1, i32 0, i32 1
  store ptr @"_ZN4absl12lts_2023080219functional_internal12InvokeObjectIZN6google8protobuf2io7Printer8ValidateEbNS6_12PrintOptionsESt17basic_string_viewIcSt11char_traitsIcEEE3$_0NSt7__cxx1112basic_stringIcSA_SaIcEEEJEEET0_NS1_7VoidPtrEDpNS1_8ForwardTIT1_E4typeE", ptr %invoker_, align 8
  %0 = load ptr, ptr %f.addr, align 8
  call void @"_ZN4absl12lts_2023080219functional_internal13AssertNonNullIZN6google8protobuf2io7Printer8ValidateEbNS6_12PrintOptionsESt17basic_string_viewIcSt11char_traitsIcEEE3$_0EEvRKT_"(ptr noundef nonnull align 8 dereferenceable(16) %0)
  %1 = load ptr, ptr %f.addr, align 8
  %ptr_2 = getelementptr inbounds %"class.absl::lts_20230802::FunctionRef", ptr %this1, i32 0, i32 0
  store ptr %1, ptr %ptr_2, align 8
  ret void
}

; Function Attrs: mustprogress uwtable
define noundef zeroext i1 @_ZN6google8protobuf2io7Printer8ValidateEbNS2_12PrintOptionsESt17basic_string_viewIcSt11char_traitsIcEE(i1 noundef zeroext %cond, i64 %opts.coerce0, i8 %opts.coerce1, i64 %message.coerce0, ptr %message.coerce1) #4 align 2 {
entry:
  %opts = alloca %"struct.google::protobuf::io::Printer::PrintOptions", align 1
  %coerce = alloca { i64, i8 }, align 1
  %message = alloca %"class.std::basic_string_view", align 8
  %cond.addr = alloca i8, align 1
  %agg.tmp = alloca %"struct.google::protobuf::io::Printer::PrintOptions", align 1
  %agg.tmp1 = alloca %"class.absl::lts_20230802::FunctionRef", align 8
  %ref.tmp = alloca %class.anon.58, align 8
  %agg.tmp.coerce = alloca { i64, i8 }, align 1
  %0 = getelementptr inbounds { i64, i8 }, ptr %coerce, i32 0, i32 0
  store i64 %opts.coerce0, ptr %0, align 1
  %1 = getelementptr inbounds { i64, i8 }, ptr %coerce, i32 0, i32 1
  store i8 %opts.coerce1, ptr %1, align 1
  call void @llvm.memcpy.p0.p0.i64(ptr align 1 %opts, ptr align 1 %coerce, i64 9, i1 false)
  %2 = getelementptr inbounds { i64, ptr }, ptr %message, i32 0, i32 0
  store i64 %message.coerce0, ptr %2, align 8
  %3 = getelementptr inbounds { i64, ptr }, ptr %message, i32 0, i32 1
  store ptr %message.coerce1, ptr %3, align 8
  %frombool = zext i1 %cond to i8
  store i8 %frombool, ptr %cond.addr, align 1
  %4 = load i8, ptr %cond.addr, align 1
  %tobool = trunc i8 %4 to i1
  call void @llvm.memcpy.p0.p0.i64(ptr align 1 %agg.tmp, ptr align 1 %opts, i64 9, i1 false)
  %5 = getelementptr inbounds %class.anon.58, ptr %ref.tmp, i32 0, i32 0
  call void @llvm.memcpy.p0.p0.i64(ptr align 8 %5, ptr align 8 %message, i64 16, i1 false)
  call void @"_ZN4absl12lts_2023080211FunctionRefIFNSt7__cxx1112basic_stringIcSt11char_traitsIcESaIcEEEvEEC2IZN6google8protobuf2io7Printer8ValidateEbNSE_12PrintOptionsESt17basic_string_viewIcS5_EE3$_0vEERKT_"(ptr noundef nonnull align 8 dereferenceable(16) %agg.tmp1, ptr noundef nonnull align 8 dereferenceable(16) %ref.tmp)
  call void @llvm.memcpy.p0.p0.i64(ptr align 1 %agg.tmp.coerce, ptr align 1 %agg.tmp, i64 9, i1 false)
  %6 = getelementptr inbounds { i64, i8 }, ptr %agg.tmp.coerce, i32 0, i32 0
  %7 = load i64, ptr %6, align 1
  %8 = getelementptr inbounds { i64, i8 }, ptr %agg.tmp.coerce, i32 0, i32 1
  %9 = load i8, ptr %8, align 1
  %10 = getelementptr inbounds { ptr, ptr }, ptr %agg.tmp1, i32 0, i32 0
  %11 = load ptr, ptr %10, align 8
  %12 = getelementptr inbounds { ptr, ptr }, ptr %agg.tmp1, i32 0, i32 1
  %13 = load ptr, ptr %12, align 8
  %call = call noundef zeroext i1 @_ZN6google8protobuf2io7Printer8ValidateEbNS2_12PrintOptionsEN4absl12lts_2023080211FunctionRefIFNSt7__cxx1112basic_stringIcSt11char_traitsIcESaIcEEEvEEE(i1 noundef zeroext %tobool, i64 %7, i8 %9, ptr %11, ptr %13)
  ret i1 %call
}