; Function Attrs: mustprogress uwtable
define noundef zeroext i1 @_ZN6google8protobuf2io7Printer8ValidateEbNS2_12PrintOptionsESt17basic_string_viewIcSt11char_traitsIcEE(i1 noundef returned zeroext %cond, i64 %opts.coerce0, i8 %opts.coerce1, i64 %message.coerce0, ptr %message.coerce1) local_unnamed_addr #3 align 2 personality ptr @__gxx_personality_v0 {
entry:
  %agg.tmp.i.i.i.i.i.i = alloca %"struct.std::__cxx11::basic_string<char>::__sv_wrapper", align 8
  %ref.tmp.i.i.i.i.i = alloca %"class.std::allocator.51", align 1
  %ref.tmp3.i = alloca %"class.absl::lts_20230802::log_internal::LogMessageFatal", align 8
  %ref.tmp4.i = alloca %"class.std::__cxx11::basic_string", align 8
  call void @llvm.lifetime.start.p0(i64 16, ptr nonnull %ref.tmp3.i)
  call void @llvm.lifetime.start.p0(i64 32, ptr nonnull %ref.tmp4.i)
  %0 = and i64 %opts.coerce0, 65536
  %tobool1.not.i = icmp ne i64 %0, 0
  %or.cond.not.i = select i1 %cond, i1 true, i1 %tobool1.not.i
  br i1 %or.cond.not.i, label %_ZN6google8protobuf2io7Printer8ValidateEbNS2_12PrintOptionsEN4absl12lts_2023080211FunctionRefIFNSt7__cxx1112basic_stringIcSt11char_traitsIcESaIcEEEvEEE.exit, label %if.else.i

if.else.i:                                        ; preds = %entry
  call void @_ZN4absl12lts_2023080212log_internal15LogMessageFatalC1EPKci(ptr noundef nonnull align 8 dereferenceable(16) %ref.tmp3.i, ptr noundef nonnull @.str.4, i32 noundef 291) #28
  call void @llvm.lifetime.start.p0(i64 1, ptr nonnull %ref.tmp.i.i.i.i.i), !noalias !46
  call void @_ZNSaIcEC1Ev(ptr noundef nonnull align 1 dereferenceable(1) %ref.tmp.i.i.i.i.i) #24, !noalias !55
  call void @llvm.lifetime.start.p0(i64 16, ptr nonnull %agg.tmp.i.i.i.i.i.i), !noalias !55
  %call.i.i.i.i.i.i = call { i64, ptr } @_ZNSt7__cxx1112basic_stringIcSt11char_traitsIcESaIcEE17_S_to_string_viewESt17basic_string_viewIcS2_E(i64 %message.coerce0, ptr %message.coerce1) #24, !noalias !55
  %1 = extractvalue { i64, ptr } %call.i.i.i.i.i.i, 0
  %2 = extractvalue { i64, ptr } %call.i.i.i.i.i.i, 1
  call void @_ZNSt7__cxx1112basic_stringIcSt11char_traitsIcESaIcEE12__sv_wrapperC1ESt17basic_string_viewIcS2_E(ptr noundef nonnull align 8 dereferenceable(16) %agg.tmp.i.i.i.i.i.i, i64 %1, ptr %2) #24
  %3 = load i64, ptr %agg.tmp.i.i.i.i.i.i, align 8, !noalias !55
  %4 = getelementptr inbounds i8, ptr %agg.tmp.i.i.i.i.i.i, i64 8
  %5 = load ptr, ptr %4, align 8, !noalias !55
  invoke void @_ZNSt7__cxx1112basic_stringIcSt11char_traitsIcESaIcEEC2ENS4_12__sv_wrapperERKS3_(ptr noundef nonnull align 8 dereferenceable(32) %ref.tmp4.i, i64 %3, ptr %5, ptr noundef nonnull align 1 dereferenceable(1) %ref.tmp.i.i.i.i.i)
          to label %invoke.cont5.i unwind label %lpad.i.i.i.i.i

lpad.i.i.i.i.i:                                   ; preds = %if.else.i
  %6 = landingpad { ptr, i32 }
          cleanup
  call void @_ZNSaIcED1Ev(ptr noundef nonnull align 1 dereferenceable(1) %ref.tmp.i.i.i.i.i) #24
  br label %ehcleanup.i

invoke.cont5.i:                                   ; preds = %if.else.i
  call void @llvm.lifetime.end.p0(i64 16, ptr nonnull %agg.tmp.i.i.i.i.i.i), !noalias !55
  call void @_ZNSaIcED1Ev(ptr noundef nonnull align 1 dereferenceable(1) %ref.tmp.i.i.i.i.i) #24
  call void @llvm.lifetime.end.p0(i64 1, ptr nonnull %ref.tmp.i.i.i.i.i), !noalias !46
  %call8.i = invoke noundef nonnull align 8 dereferenceable(16) ptr @_ZN4absl12lts_2023080212log_internal10LogMessagelsERKNSt7__cxx1112basic_stringIcSt11char_traitsIcESaIcEEE(ptr noundef nonnull align 8 dereferenceable(16) %ref.tmp3.i, ptr noundef nonnull align 8 dereferenceable(32) %ref.tmp4.i)
          to label %invoke.cont7.i unwind label %lpad6.i

invoke.cont7.i:                                   ; preds = %invoke.cont5.i
  call void @_ZNSt7__cxx1112basic_stringIcSt11char_traitsIcESaIcEED1Ev(ptr noundef nonnull align 8 dereferenceable(32) %ref.tmp4.i) #24
  call void @_ZN4absl12lts_2023080212log_internal15LogMessageFatalD1Ev(ptr noundef nonnull align 8 dereferenceable(16) %ref.tmp3.i) #29
  unreachable

lpad6.i:                                          ; preds = %invoke.cont5.i
  %7 = landingpad { ptr, i32 }
          cleanup
  call void @_ZNSt7__cxx1112basic_stringIcSt11char_traitsIcESaIcEED1Ev(ptr noundef nonnull align 8 dereferenceable(32) %ref.tmp4.i) #24
  br label %ehcleanup.i

ehcleanup.i:                                      ; preds = %lpad.i.i.i.i.i, %lpad6.i
  call void @_ZN4absl12lts_2023080212log_internal15LogMessageFatalD1Ev(ptr noundef nonnull align 8 dereferenceable(16) %ref.tmp3.i) #29
  unreachable

_ZN6google8protobuf2io7Printer8ValidateEbNS2_12PrintOptionsEN4absl12lts_2023080211FunctionRefIFNSt7__cxx1112basic_stringIcSt11char_traitsIcESaIcEEEvEEE.exit: ; preds = %entry
  call void @llvm.lifetime.end.p0(i64 16, ptr nonnull %ref.tmp3.i)
  call void @llvm.lifetime.end.p0(i64 32, ptr nonnull %ref.tmp4.i)
  ret i1 %cond
}